target datalayout = "e-m:e-p270:32:32-p271:32:32-p272:64:64-i64:64-i128:128-f80:128-n8:16:32:64-S128"
target triple = "x86_64-unknown-linux-gnu"

%"class.zmq::stream_engine_base_t" = type <{ %"class.zmq::io_object_t", %"struct.zmq::i_engine", %"struct.zmq::options_t", ptr, i64, ptr, ptr, i64, ptr, ptr, { i64, i64 }, { i64, i64 }, ptr, i8, i8, [6 x i8], %"struct.zmq::endpoint_uri_pair_t", i8, i8, i8, i8, [4 x i8], %"class.std::__cxx11::basic_string", i32, [4 x i8], ptr, i8, i8, [6 x i8], %"class.zmq::msg_t", i8, [7 x i8], ptr, ptr, i8, [7 x i8] }>
%"class.zmq::io_object_t" = type { %"struct.zmq::i_poll_events", ptr }
%"struct.zmq::i_poll_events" = type { ptr }
%"struct.zmq::i_engine" = type { ptr }
%"struct.zmq::options_t" = type { i32, i32, i64, i8, [256 x i8], i32, i32, i32, i32, i32, i32, i32, i32, i8, %"struct.zmq::atomic_value_t", i32, i32, i32, i32, i32, i32, i64, i32, i32, i8, i32, i8, i8, i8, i8, i8, %"class.std::__cxx11::basic_string", %"class.std::__cxx11::basic_string", %"class.std::__cxx11::basic_string", i32, i32, i32, i32, %"class.std::vector", %"class.std::set", %"class.std::set", %"class.std::set.6", i32, i32, %"class.std::__cxx11::basic_string", %"class.std::__cxx11::basic_string", %"class.std::__cxx11::basic_string", [32 x i8], [32 x i8], [32 x i8], %"class.std::__cxx11::basic_string", %"class.std::__cxx11::basic_string", i32, i32, i8, i32, i8, i32, i8, i16, i32, i32, i32, %"class.std::__cxx11::basic_string", i8, i8, i8, i32, i32, i8, i32, %"class.std::map", i32, %"class.std::__cxx11::basic_string", %"class.std::__cxx11::basic_string", %"class.std::__cxx11::basic_string", %"class.std::__cxx11::basic_string", i8, %"class.std::vector.21", i8, %"class.std::vector.21", i8, %"class.std::vector.21", i8, i32, i8, i32, i32, i32, i32, i32, i8, i32 }
%"struct.zmq::atomic_value_t" = type { %"struct.std::atomic" }
%"struct.std::atomic" = type { %"struct.std::__atomic_base" }
%"struct.std::__atomic_base" = type { i32 }
%"class.std::vector" = type { %"struct.std::_Vector_base" }
%"struct.std::_Vector_base" = type { %"struct.std::_Vector_base<zmq::tcp_address_mask_t, std::allocator<zmq::tcp_address_mask_t>>::_Vector_impl" }
%"struct.std::_Vector_base<zmq::tcp_address_mask_t, std::allocator<zmq::tcp_address_mask_t>>::_Vector_impl" = type { %"struct.std::_Vector_base<zmq::tcp_address_mask_t, std::allocator<zmq::tcp_address_mask_t>>::_Vector_impl_data" }
%"struct.std::_Vector_base<zmq::tcp_address_mask_t, std::allocator<zmq::tcp_address_mask_t>>::_Vector_impl_data" = type { ptr, ptr, ptr }
%"class.std::set" = type { %"class.std::_Rb_tree" }
%"class.std::_Rb_tree" = type { %"struct.std::_Rb_tree<unsigned int, unsigned int, std::_Identity<unsigned int>, std::less<unsigned int>>::_Rb_tree_impl" }
%"struct.std::_Rb_tree<unsigned int, unsigned int, std::_Identity<unsigned int>, std::less<unsigned int>>::_Rb_tree_impl" = type { %"struct.std::_Rb_tree_key_compare", %"struct.std::_Rb_tree_header" }
%"struct.std::_Rb_tree_key_compare" = type { %"struct.std::less" }
%"struct.std::less" = type { i8 }
%"struct.std::_Rb_tree_header" = type { %"struct.std::_Rb_tree_node_base", i64 }
%"struct.std::_Rb_tree_node_base" = type { i32, ptr, ptr, ptr }
%"class.std::set.6" = type { %"class.std::_Rb_tree.7" }
%"class.std::_Rb_tree.7" = type { %"struct.std::_Rb_tree<int, int, std::_Identity<int>, std::less<int>>::_Rb_tree_impl" }
%"struct.std::_Rb_tree<int, int, std::_Identity<int>, std::less<int>>::_Rb_tree_impl" = type { %"struct.std::_Rb_tree_key_compare.11", %"struct.std::_Rb_tree_header" }
%"struct.std::_Rb_tree_key_compare.11" = type { %"struct.std::less.12" }
%"struct.std::less.12" = type { i8 }
%"class.std::map" = type { %"class.std::_Rb_tree.14" }
%"class.std::_Rb_tree.14" = type { %"struct.std::_Rb_tree<std::__cxx11::basic_string<char>, std::pair<const std::__cxx11::basic_string<char>, std::__cxx11::basic_string<char>>, std::_Select1st<std::pair<const std::__cxx11::basic_string<char>, std::__cxx11::basic_string<char>>>, std::less<std::__cxx11::basic_string<char>>>::_Rb_tree_impl" }
%"struct.std::_Rb_tree<std::__cxx11::basic_string<char>, std::pair<const std::__cxx11::basic_string<char>, std::__cxx11::basic_string<char>>, std::_Select1st<std::pair<const std::__cxx11::basic_string<char>, std::__cxx11::basic_string<char>>>, std::less<std::__cxx11::basic_string<char>>>::_Rb_tree_impl" = type { %"struct.std::_Rb_tree_key_compare.18", %"struct.std::_Rb_tree_header" }
%"struct.std::_Rb_tree_key_compare.18" = type { %"struct.std::less.19" }
%"struct.std::less.19" = type { i8 }
%"class.std::vector.21" = type { %"struct.std::_Vector_base.22" }
%"struct.std::_Vector_base.22" = type { %"struct.std::_Vector_base<unsigned char, std::allocator<unsigned char>>::_Vector_impl" }
%"struct.std::_Vector_base<unsigned char, std::allocator<unsigned char>>::_Vector_impl" = type { %"struct.std::_Vector_base<unsigned char, std::allocator<unsigned char>>::_Vector_impl_data" }
%"struct.std::_Vector_base<unsigned char, std::allocator<unsigned char>>::_Vector_impl_data" = type { ptr, ptr, ptr }
%"struct.zmq::endpoint_uri_pair_t" = type <{ %"class.std::__cxx11::basic_string", %"class.std::__cxx11::basic_string", i32, [4 x i8] }>
%"class.std::__cxx11::basic_string" = type { %"struct.std::__cxx11::basic_string<char>::_Alloc_hider", i64, %union.anon }
%"struct.std::__cxx11::basic_string<char>::_Alloc_hider" = type { ptr }
%union.anon = type { i64, [8 x i8] }
%"class.zmq::msg_t" = type { %union.anon.26 }
%union.anon.26 = type { %struct.anon }
%struct.anon = type { ptr, [34 x i8], i8, i8, i32, %"union.zmq::msg_t::group_t" }
%"union.zmq::msg_t::group_t" = type { %struct.anon.28 }
%struct.anon.28 = type { i8, ptr }

@stderr = external global ptr, align 8
@.str.1 = private unnamed_addr constant [118 x i8] c"generated/home/dtcxzyw/WorkSpace/Projects/compilers/llvm-opt-benchmark/bench/libzmq/libzmq/src/stream_engine_base.cpp\00", align 1
@.str.2 = private unnamed_addr constant [30 x i8] c"Assertion failed: %s (%s:%d)\0A\00", align 1
@.str.15 = private unnamed_addr constant [19 x i8] c"_mechanism != NULL\00", align 1

; Function Attrs: mustprogress uwtable
define noundef i32 @_ZN3zmq20stream_engine_base_t15pull_and_encodeEPNS_5msg_tE(ptr noundef nonnull align 8 dereferenceable(1689) %this, ptr noundef %msg_) #0 align 2 {
entry:
  %retval = alloca i32, align 4
  %this.addr = alloca ptr, align 8
  %msg_.addr = alloca ptr, align 8
  store ptr %this, ptr %this.addr, align 8
  store ptr %msg_, ptr %msg_.addr, align 8
  %this1 = load ptr, ptr %this.addr, align 8
  br label %do.body

do.body:                                          ; preds = %entry
  %_mechanism = getelementptr inbounds %"class.zmq::stream_engine_base_t", ptr %this1, i32 0, i32 9
  %0 = load ptr, ptr %_mechanism, align 8
  %cmp = icmp ne ptr %0, null
  %lnot = xor i1 %cmp, true
  br i1 %lnot, label %if.then, label %if.end

if.then:                                          ; preds = %do.body
  %1 = load ptr, ptr @stderr, align 8
  %call = call i32 (ptr, ptr, ...) @fprintf(ptr noundef %1, ptr noundef @.str.2, ptr noundef @.str.15, ptr noundef @.str.1, i32 noundef 609)
  %2 = load ptr, ptr @stderr, align 8
  %call2 = call i32 @fflush(ptr noundef %2)
  call void @_ZN3zmq9zmq_abortEPKc(ptr noundef @.str.15)
  br label %if.end

if.end:                                           ; preds = %if.then, %do.body
  br label %do.end

do.end:                                           ; preds = %if.end
  %_session = getelementptr inbounds %"class.zmq::stream_engine_base_t", ptr %this1, i32 0, i32 32
  %3 = load ptr, ptr %_session, align 8
  %4 = load ptr, ptr %msg_.addr, align 8
  %vtable = load ptr, ptr %3, align 8
  %vfn = getelementptr inbounds ptr, ptr %vtable, i64 30
  %5 = load ptr, ptr %vfn, align 8
  %call3 = call noundef i32 %5(ptr noundef nonnull align 8 dereferenceable(1624) %3, ptr noundef %4)
  %cmp4 = icmp eq i32 %call3, -1
  br i1 %cmp4, label %if.then5, label %if.end6

if.then5:                                         ; preds = %do.end
  store i32 -1, ptr %retval, align 4
  br label %return

if.end6:                                          ; preds = %do.end
  %_mechanism7 = getelementptr inbounds %"class.zmq::stream_engine_base_t", ptr %this1, i32 0, i32 9
  %6 = load ptr, ptr %_mechanism7, align 8
  %7 = load ptr, ptr %msg_.addr, align 8
  %vtable8 = load ptr, ptr %6, align 8
  %vfn9 = getelementptr inbounds ptr, ptr %vtable8, i64 4
  %8 = load ptr, ptr %vfn9, align 8
  %call10 = call noundef i32 %8(ptr noundef nonnull align 8 dereferenceable(1488) %6, ptr noundef %7)
  %cmp11 = icmp eq i32 %call10, -1
  br i1 %cmp11, label %if.then12, label %if.end13

if.then12:                                        ; preds = %if.end6
  store i32 -1, ptr %retval, align 4
  br label %return

if.end13:                                         ; preds = %if.end6
  store i32 0, ptr %retval, align 4
  br label %return

return:                                           ; preds = %if.end13, %if.then12, %if.then5
  %9 = load i32, ptr %retval, align 4
  ret i32 %9
}

; Function Attrs: mustprogress uwtable
define noundef i32 @_ZN3zmq20stream_engine_base_t22next_handshake_commandEPNS_5msg_tE(ptr noundef nonnull align 8 dereferenceable(1689) %this, ptr noundef %msg_) #0 align 2 {
entry:
  %retval = alloca i32, align 4
  %this.addr = alloca ptr, align 8
  %msg_.addr = alloca ptr, align 8
  %rc = alloca i32, align 4
  store ptr %this, ptr %this.addr, align 8
  store ptr %msg_, ptr %msg_.addr, align 8
  %this1 = load ptr, ptr %this.addr, align 8
  br label %do.body

do.body:                                          ; preds = %entry
  %_mechanism = getelementptr inbounds %"class.zmq::stream_engine_base_t", ptr %this1, i32 0, i32 9
  %0 = load ptr, ptr %_mechanism, align 8
  %cmp = icmp ne ptr %0, null
  %lnot = xor i1 %cmp, true
  br i1 %lnot, label %if.then, label %if.end

if.then:                                          ; preds = %do.body
  %1 = load ptr, ptr @stderr, align 8
  %call = call i32 (ptr, ptr, ...) @fprintf(ptr noundef %1, ptr noundef @.str.2, ptr noundef @.str.15, ptr noundef @.str.1, i32 noundef 455)
  %2 = load ptr, ptr @stderr, align 8
  %call2 = call i32 @fflush(ptr noundef %2)
  call void @_ZN3zmq9zmq_abortEPKc(ptr noundef @.str.15)
  br label %if.end

if.end:                                           ; preds = %if.then, %do.body
  br label %do.end

do.end:                                           ; preds = %if.end
  %_mechanism3 = getelementptr inbounds %"class.zmq::stream_engine_base_t", ptr %this1, i32 0, i32 9
  %3 = load ptr, ptr %_mechanism3, align 8
  %vtable = load ptr, ptr %3, align 8
  %vfn = getelementptr inbounds ptr, ptr %vtable, i64 7
  %4 = load ptr, ptr %vfn, align 8
  %call4 = call noundef i32 %4(ptr noundef nonnull align 8 dereferenceable(1488) %3)
  %cmp5 = icmp eq i32 %call4, 1
  br i1 %cmp5, label %if.then6, label %if.end8

if.then6:                                         ; preds = %do.end
  call void @_ZN3zmq20stream_engine_base_t15mechanism_readyEv(ptr noundef nonnull align 8 dereferenceable(1689) %this1)
  %5 = load ptr, ptr %msg_.addr, align 8
  %call7 = call noundef i32 @_ZN3zmq20stream_engine_base_t15pull_and_encodeEPNS_5msg_tE(ptr noundef nonnull align 8 dereferenceable(1689) %this1, ptr noundef %5)
  store i32 %call7, ptr %retval, align 4
  br label %return

if.end8:                                          ; preds = %do.end
  %_mechanism9 = getelementptr inbounds %"class.zmq::stream_engine_base_t", ptr %this1, i32 0, i32 9
  %6 = load ptr, ptr %_mechanism9, align 8
  %vtable10 = load ptr, ptr %6, align 8
  %vfn11 = getelementptr inbounds ptr, ptr %vtable10, i64 7
  %7 = load ptr, ptr %vfn11, align 8
  %call12 = call noundef i32 %7(ptr noundef nonnull align 8 dereferenceable(1488) %6)
  %cmp13 = icmp eq i32 %call12, 2
  br i1 %cmp13, label %if.then14, label %if.end16

if.then14:                                        ; preds = %if.end8
  %call15 = call ptr @__errno_location() #16
  store i32 71, ptr %call15, align 4
  store i32 -1, ptr %retval, align 4
  br label %return

if.end16:                                         ; preds = %if.end8
  %_mechanism17 = getelementptr inbounds %"class.zmq::stream_engine_base_t", ptr %this1, i32 0, i32 9
  %8 = load ptr, ptr %_mechanism17, align 8
  %9 = load ptr, ptr %msg_.addr, align 8
  %vtable18 = load ptr, ptr %8, align 8
  %vfn19 = getelementptr inbounds ptr, ptr %vtable18, i64 2
  %10 = load ptr, ptr %vfn19, align 8
  %call20 = call noundef i32 %10(ptr noundef nonnull align 8 dereferenceable(1488) %8, ptr noundef %9)
  store i32 %call20, ptr %rc, align 4
  %11 = load i32, ptr %rc, align 4
  %cmp21 = icmp eq i32 %11, 0
  br i1 %cmp21, label %if.then22, label %if.end23

if.then22:                                        ; preds = %if.end16
  %12 = load ptr, ptr %msg_.addr, align 8
  call void @_ZN3zmq5msg_t9set_flagsEh(ptr noundef nonnull align 8 dereferenceable(64) %12, i8 noundef zeroext 2)
  br label %if.end23

if.end23:                                         ; preds = %if.then22, %if.end16
  %13 = load i32, ptr %rc, align 4
  store i32 %13, ptr %retval, align 4
  br label %return

return:                                           ; preds = %if.end23, %if.then14, %if.then6
  %14 = load i32, ptr %retval, align 4
  ret i32 %14
}