; Function Attrs: mustprogress uwtable
define noundef i32 @_ZN3zmq20stream_engine_base_t22next_handshake_commandEPNS_5msg_tE(ptr noundef nonnull align 8 dereferenceable(1689) %this, ptr noundef %msg_) local_unnamed_addr #0 align 2 {
entry:
  %_mechanism = getelementptr inbounds i8, ptr %this, i64 1408
  %0 = load ptr, ptr %_mechanism, align 8
  %cmp.not = icmp eq ptr %0, null
  br i1 %cmp.not, label %if.then, label %do.end

if.then:                                          ; preds = %entry
  %1 = load ptr, ptr @stderr, align 8
  %call = tail call i32 (ptr, ptr, ...) @fprintf(ptr noundef %1, ptr noundef nonnull @.str.2, ptr noundef nonnull @.str.15, ptr noundef nonnull @.str.1, i32 noundef 455) #21
  %2 = load ptr, ptr @stderr, align 8
  %call2 = tail call i32 @fflush(ptr noundef %2)
  tail call void @_ZN3zmq9zmq_abortEPKc(ptr noundef nonnull @.str.15)
  %.pre = load ptr, ptr %_mechanism, align 8
  br label %do.end

do.end:                                           ; preds = %entry, %if.then
  %3 = phi ptr [ %0, %entry ], [ %.pre, %if.then ]
  %vtable = load ptr, ptr %3, align 8
  %vfn = getelementptr inbounds i8, ptr %vtable, i64 56
  %4 = load ptr, ptr %vfn, align 8
  %call4 = tail call noundef i32 %4(ptr noundef nonnull align 8 dereferenceable(1488) %3)
  %cmp5 = icmp eq i32 %call4, 1
  br i1 %cmp5, label %if.then6, label %if.end8

if.then6:                                         ; preds = %do.end
  tail call void @_ZN3zmq20stream_engine_base_t15mechanism_readyEv(ptr noundef nonnull align 8 dereferenceable(1689) %this)
  %5 = load ptr, ptr %_mechanism, align 8
  %cmp.not.i = icmp eq ptr %5, null
  br i1 %cmp.not.i, label %if.then.i, label %do.end.i

if.then.i:                                        ; preds = %if.then6
  %6 = load ptr, ptr @stderr, align 8
  %call.i = tail call i32 (ptr, ptr, ...) @fprintf(ptr noundef %6, ptr noundef nonnull @.str.2, ptr noundef nonnull @.str.15, ptr noundef nonnull @.str.1, i32 noundef 609) #21
  %7 = load ptr, ptr @stderr, align 8
  %call2.i = tail call i32 @fflush(ptr noundef %7)
  tail call void @_ZN3zmq9zmq_abortEPKc(ptr noundef nonnull @.str.15)
  br label %do.end.i

do.end.i:                                         ; preds = %if.then.i, %if.then6
  %_session.i = getelementptr inbounds i8, ptr %this, i64 1672
  %8 = load ptr, ptr %_session.i, align 8
  %vtable.i = load ptr, ptr %8, align 8
  %vfn.i = getelementptr inbounds i8, ptr %vtable.i, i64 240
  %9 = load ptr, ptr %vfn.i, align 8
  %call3.i = tail call noundef i32 %9(ptr noundef nonnull align 8 dereferenceable(1624) %8, ptr noundef %msg_)
  %cmp4.i = icmp eq i32 %call3.i, -1
  br i1 %cmp4.i, label %return, label %if.end6.i

if.end6.i:                                        ; preds = %do.end.i
  %10 = load ptr, ptr %_mechanism, align 8
  %vtable8.i = load ptr, ptr %10, align 8
  %vfn9.i = getelementptr inbounds i8, ptr %vtable8.i, i64 32
  %11 = load ptr, ptr %vfn9.i, align 8
  %call10.i = tail call noundef i32 %11(ptr noundef nonnull align 8 dereferenceable(1488) %10, ptr noundef %msg_)
  %cmp11.i = icmp eq i32 %call10.i, -1
  %..i = sext i1 %cmp11.i to i32
  br label %return

if.end8:                                          ; preds = %do.end
  %12 = load ptr, ptr %_mechanism, align 8
  %vtable10 = load ptr, ptr %12, align 8
  %vfn11 = getelementptr inbounds i8, ptr %vtable10, i64 56
  %13 = load ptr, ptr %vfn11, align 8
  %call12 = tail call noundef i32 %13(ptr noundef nonnull align 8 dereferenceable(1488) %12)
  %cmp13 = icmp eq i32 %call12, 2
  br i1 %cmp13, label %if.then14, label %if.end16

if.then14:                                        ; preds = %if.end8
  %call15 = tail call ptr @__errno_location() #20
  store i32 71, ptr %call15, align 4
  br label %return

if.end16:                                         ; preds = %if.end8
  %14 = load ptr, ptr %_mechanism, align 8
  %vtable18 = load ptr, ptr %14, align 8
  %vfn19 = getelementptr inbounds i8, ptr %vtable18, i64 16
  %15 = load ptr, ptr %vfn19, align 8
  %call20 = tail call noundef i32 %15(ptr noundef nonnull align 8 dereferenceable(1488) %14, ptr noundef %msg_)
  %cmp21 = icmp eq i32 %call20, 0
  br i1 %cmp21, label %if.then22, label %return

if.then22:                                        ; preds = %if.end16
  tail call void @_ZN3zmq5msg_t9set_flagsEh(ptr noundef nonnull align 8 dereferenceable(64) %msg_, i8 noundef zeroext 2)
  br label %return

return:                                           ; preds = %if.end6.i, %do.end.i, %if.end16, %if.then22, %if.then14
  %retval.0 = phi i32 [ -1, %if.then14 ], [ 0, %if.then22 ], [ %call20, %if.end16 ], [ -1, %do.end.i ], [ %..i, %if.end6.i ]
  ret i32 %retval.0
}